; Function Attrs: mustprogress uwtable
define hidden noundef zeroext i1 @_ZN4cvc58internal6theory11quantifiers16SygusGrammarNorm11TransfChain11isChainableENS0_8TypeNodeENS0_12NodeTemplateILb1EEE(ptr noundef nonnull %tn, ptr nocapture noundef readonly %op) local_unnamed_addr #3 align 2 personality ptr @__gxx_personality_v0 {
entry:
  %call = tail call noundef zeroext i1 @_ZNK4cvc58internal8TypeNode9isIntegerEv(ptr noundef nonnull align 8 dereferenceable(8) %tn)
  br i1 %call, label %land.rhs, label %return

land.rhs:                                         ; preds = %entry
  %call1 = tail call noundef ptr @_ZN4cvc58internal11NodeManager9currentNMEv()
  %0 = load ptr, ptr %op, align 8
  %call.i1 = tail call noundef i32 @_ZN4cvc58internal4kind14operatorToKindEPNS0_4expr9NodeValueE(ptr noundef %0)
  %cmp = icmp eq i32 %call.i1, 36
  br label %return

return:                                           ; preds = %entry, %land.rhs
  %1 = phi i1 [ %cmp, %land.rhs ], [ false, %entry ]
  ret i1 %1
}